; Function Attrs: nounwind sspstrong uwtable
define dso_local i64 @rb_ident_hash_new() local_unnamed_addr #0 {
  %1 = load i64, ptr @rb_cHash, align 8, !tbaa !7
  %2 = tail call align 8 ptr @llvm.threadlocal.address.p0(ptr align 8 @ruby_current_ec)
  %3 = load ptr, ptr %2, align 8, !tbaa !24
  %4 = tail call i64 @rb_wb_protected_newobj_of(ptr noundef %3, i64 noundef %1, i64 noundef 8, i64 noundef 160) #28
  %5 = inttoptr i64 %4 to ptr
  %6 = getelementptr inbounds nuw i8, ptr %5, i64 16
  store i64 4, ptr %6, align 8, !tbaa !7
  %7 = add i64 %4, 24
  %8 = inttoptr i64 %7 to ptr
  %9 = tail call ptr @rb_st_init_existing_table_with_size(ptr noundef nonnull %8, ptr noundef nonnull @rb_hashtype_ident, i64 noundef 0) #28
  %10 = load i64, ptr %5, align 8, !tbaa !11
  %11 = or i64 %10, 32768
  store i64 %11, ptr %5, align 8, !tbaa !11
  ret i64 %4
}